Certificate:
    Data:
        Version: 3 (0x2)
        Serial Number: 1 (0x1)
    Signature Algorithm: sha256WithRSAEncryption
        Issuer: CN=10.244.0.1@1537168382
        Validity
            Not Before: Sep 17 07:14:12 2018 GMT
            Not After : Aug 24 07:14:12 2118 GMT
        Subject: CN=server
        Subject Public Key Info:
            Public Key Algorithm: rsaEncryption
                Public-Key: (2048 bit)
                Modulus:
                    00:bd:cb:51:ea:38:7c:25:80:b5:26:d5:ed:ad:dc:
                    12:3a:ba:17:06:8a:e7:75:a8:86:af:bc:02:0a:5a:
                    f1:42:94:ec:6f:e6:2c:5e:dd:6d:95:d0:54:0f:6f:
                    16:cd:35:0f:8f:e1:47:dc:f1:bc:fe:07:cc:a9:ca:
                    f0:ae:59:3b:5d:69:6c:eb:c1:8d:eb:51:44:36:ae:
                    c5:01:03:23:53:29:18:8a:0f:40:b6:e3:a0:30:bf:
                    8c:4b:4c:6d:3c:ef:c6:70:b0:da:4e:88:45:d3:c9:
                    88:48:ec:a5:3b:58:4d:56:94:cb:36:56:47:07:b7:
                    11:57:55:7f:d9:94:53:2d:ed:8f:fc:20:ac:a9:d1:
                    39:16:74:39:1e:96:2f:70:63:93:ba:60:8e:95:0d:
                    f1:f5:28:0e:1a:b0:81:01:e8:ea:17:49:45:f8:dc:
                    5d:0f:c6:5f:5d:b6:52:41:4b:20:18:22:b1:92:8f:
                    9b:44:fd:96:2d:2d:5e:0b:ed:c9:15:cb:4f:d5:e3:
                    d6:e7:ba:e9:59:9e:fa:02:ae:93:d5:5a:d4:19:a5:
                    40:b0:25:55:0d:91:80:6b:be:24:aa:92:9c:cb:12:
                    d7:a7:5e:49:ca:79:b6:a4:11:41:c5:6d:12:06:84:
                    33:a0:f1:75:18:ff:3e:9e:56:c1:04:02:eb:4d:ca:
                    d1:bd
                Exponent: 65537 (0x10001)
        X509v3 extensions:
            X509v3 Basic Constraints: 
                CA:FALSE
            X509v3 Subject Key Identifier: 
                83:3F:85:EA:A3:E4:AB:30:B1:04:38:FA:FA:2B:39:97:26:B4:19:FF
            X509v3 Authority Key Identifier: 
                keyid:95:00:2A:3B:21:14:B0:4E:96:27:18:80:97:C6:63:03:79:2C:9A:83
                DirName:/CN=10.244.0.1@1537168382
                serial:A1:1B:06:76:13:8C:98:B5

            X509v3 Extended Key Usage: 
                TLS Web Server Authentication
            X509v3 Key Usage: 
                Digital Signature, Key Encipherment
            X509v3 Subject Alternative Name: 
                IP Address:10.244.0.1, IP Address:10.244.0.1, DNS:*.kubernetes, DNS:*.default, DNS:*.default.svc, DNS:*.default.svc.cluster, DNS:*.default.svc.cluster.local
    Signature Algorithm: sha256WithRSAEncryption
         cc:c7:47:ae:aa:b5:ff:43:b5:a9:9b:ae:92:f9:10:0e:ba:c5:
         b4:39:bb:59:20:b8:27:66:b5:ca:86:aa:72:2d:f9:59:a0:35:
         17:c4:11:56:74:0b:66:15:72:ea:14:a6:96:2c:91:a3:fd:19:
         9c:d8:7a:39:5f:91:9d:99:ee:dc:a8:e3:e3:79:df:b7:37:d6:
         fa:4e:7c:2f:26:67:de:b7:ce:05:09:26:ce:43:85:ee:98:8c:
         20:2e:5a:35:86:34:be:07:c6:c3:96:33:f2:23:74:32:91:a4:
         89:30:17:a7:8e:d3:97:75:87:14:bd:5f:b8:17:83:6e:6b:9b:
         f2:8f:51:bb:b1:d1:19:06:ee:f1:76:99:a5:8a:22:2a:42:9d:
         47:e1:ac:09:65:bc:a3:0f:0c:14:ec:ac:34:88:a1:16:4e:df:
         37:1c:2a:ae:82:b9:e2:c7:d3:8e:7a:e3:ef:77:2e:f2:2a:40:
         f4:ee:d3:b8:64:df:be:78:10:31:11:6e:30:ab:08:a0:08:2a:
         e4:96:04:bb:62:92:6f:67:89:fd:69:24:1e:b6:c7:b0:f3:f6:
         d9:82:a2:bc:a6:6c:23:11:90:37:14:92:af:f2:45:e1:5b:1e:
         81:0c:6a:5d:47:26:67:77:58:a7:77:6e:a6:ee:c9:a1:1d:ce:
         4f:2a:21:8c
-----BEGIN CERTIFICATE-----
MIIDxTCCAq2gAwIBAgIBATANBgkqhkiG9w0BAQsFADAgMR4wHAYDVQQDDBUxMC4y
NDQuMC4xQDE1MzcxNjgzODIwIBcNMTgwOTE3MDcxNDEyWhgPMjExODA4MjQwNzE0
MTJaMBExDzANBgNVBAMMBnNlcnZlcjCCASIwDQYJKoZIhvcNAQEBBQADggEPADCC
AQoCggEBAL3LUeo4fCWAtSbV7a3cEjq6FwaK53Wohq+8Agpa8UKU7G/mLF7dbZXQ
VA9vFs01D4/hR9zxvP4HzKnK8K5ZO11pbOvBjetRRDauxQEDI1MpGIoPQLbjoDC/
jEtMbTzvxnCw2k6IRdPJiEjspTtYTVaUyzZWRwe3EVdVf9mUUy3tj/wgrKnRORZ0
OR6WL3Bjk7pgjpUN8fUoDhqwgQHo6hdJRfjcXQ/GX122UkFLIBgisZKPm0T9li0t
XgvtyRXLT9Xj1ue66Vme+gKuk9Va1BmlQLAlVQ2RgGu+JKqSnMsS16deScp5tqQR
QcVtEgaEM6DxdRj/Pp5WwQQC603K0b0CAwEAAaOCARUwggERMAkGA1UdEwQCMAAw
HQYDVR0OBBYEFIM/heqj5KswsQQ4+vorOZcmtBn/MFAGA1UdIwRJMEeAFJUAKjsh
FLBOlicYgJfGYwN5LJqDoSSkIjAgMR4wHAYDVQQDDBUxMC4yNDQuMC4xQDE1Mzcx
NjgzODKCCQChGwZ2E4yYtTATBgNVHSUEDDAKBggrBgEFBQcDATALBgNVHQ8EBAMC
BaAwcQYDVR0RBGowaIcECvQAAYcECvQAAYIMKi5rdWJlcm5ldGVzggkqLmRlZmF1
bHSCDSouZGVmYXVsdC5zdmOCFSouZGVmYXVsdC5zdmMuY2x1c3RlcoIbKi5kZWZh
dWx0LnN2Yy5jbHVzdGVyLmxvY2FsMA0GCSqGSIb3DQEBCwUAA4IBAQDMx0euqrX/
Q7Wpm66S+RAOusW0ObtZILgnZrXKhqpyLflZoDUXxBFWdAtmFXLqFKaWLJGj/Rmc
2Ho5X5Gdme7cqOPjed+3N9b6TnwvJmfet84FCSbOQ4XumIwgLlo1hjS+B8bDljPy
I3QykaSJMBenjtOXdYcUvV+4F4Nua5vyj1G7sdEZBu7xdpmliiIqQp1H4awJZbyj
DwwU7Kw0iKEWTt83HCqugrnix9OOeuPvdy7yKkD07tO4ZN++eBAxEW4wqwigCCrk
lgS7YpJvZ4n9aSQetsew8/bZgqK8pmwjEZA3FJKv8kXhWx6BDGpdRyZnd1ind26m
7smhHc5PKiGM
-----END CERTIFICATE-----
